; Function Attrs: null_pointer_is_valid sspstrong uwtable
define internal fastcc void @add_sized_cstring(ptr noundef %0, ptr noundef readonly captures(none) %1) unnamed_addr #0 {
  %3 = load i32, ptr @hf_woww_string_length, align 4
  %4 = tail call ptr @ptvcursor_add(ptr noundef %0, i32 noundef %3, i32 noundef 4, i32 noundef -2147483648)
  %5 = tail call ptr @ptvcursor_tvbuff(ptr noundef %0)
  %6 = tail call i32 @ptvcursor_current_offset(ptr noundef %0)
  br label %7

7:                                                ; preds = %8, %2
  %.012.i = phi i32 [ 0, %2 ], [ %11, %8 ]
  %exitcond.i = icmp eq i32 %.012.i, 32767
  br i1 %exitcond.i, label %get_null_terminated_string_length.exit, label %8

8:                                                ; preds = %7
  %9 = add i32 %.012.i, %6
  %10 = tail call zeroext i8 @tvb_get_uint8(ptr noundef %5, i32 noundef %9)
  %.not.i = icmp eq i8 %10, 0
  %11 = add nuw nsw i32 %.012.i, 1
  br i1 %.not.i, label %get_null_terminated_string_length.exit, label %7, !llvm.loop !19

get_null_terminated_string_length.exit:           ; preds = %7, %8
  %spec.select.i = phi i32 [ %11, %8 ], [ 0, %7 ]
  %12 = load i32, ptr %1, align 4
  %13 = tail call ptr @ptvcursor_add(ptr noundef %0, i32 noundef %12, i32 noundef %spec.select.i, i32 noundef 2)
  ret void
}